target datalayout = "e-m:e-p270:32:32-p271:32:32-p272:64:64-i64:64-i128:128-f80:128-n8:16:32:64-S128"
target triple = "x86_64-pc-linux-gnu"

%"class.fmt::v11::basic_string_view" = type { ptr, i64 }
%"class.std::chrono::time_point" = type { %"class.std::chrono::duration" }
%"class.std::chrono::duration" = type { i64 }
%"class.fmt::v11::basic_memory_buffer" = type <{ %"class.fmt::v11::detail::buffer", [250 x i8], [6 x i8] }>
%"class.fmt::v11::detail::buffer" = type { ptr, i64, i64, ptr }
%"class.spdlog::details::log_msg_buffer" = type { %"struct.spdlog::details::log_msg", %"class.fmt::v11::basic_memory_buffer" }
%"struct.spdlog::details::log_msg" = type { %"class.fmt::v11::basic_string_view", i32, %"class.std::chrono::time_point", i64, i64, i64, %"struct.spdlog::source_loc", %"class.fmt::v11::basic_string_view" }
%"struct.spdlog::source_loc" = type { ptr, i32, ptr }

@.str.49 = private unnamed_addr constant [15 x i8] c"negative value\00", align 1

; Function Attrs: mustprogress nounwind uwtable
define linkonce_odr dso_local void @_ZN3fmt3v116detail13ignore_unusedIJbA15_cEEEvDpRKT_(ptr noundef nonnull align 1 dereferenceable(1) %0, ptr noundef nonnull align 1 dereferenceable(15) %1) #0 comdat {
  %3 = alloca ptr, align 8
  %4 = alloca ptr, align 8
  store ptr %0, ptr %3, align 8, !tbaa !656
  store ptr %1, ptr %4, align 8, !tbaa !8
  ret void
}

; Function Attrs: mustprogress nounwind uwtable
define linkonce_odr dso_local void @_ZN3fmt3v1117basic_string_viewIcEC2EPKcm(ptr noundef nonnull align 8 dereferenceable(16) %0, ptr noundef %1, i64 noundef %2) unnamed_addr #0 comdat align 2 {
  %4 = alloca ptr, align 8
  %5 = alloca ptr, align 8
  %6 = alloca i64, align 8
  store ptr %0, ptr %4, align 8, !tbaa !13
  store ptr %1, ptr %5, align 8, !tbaa !8
  store i64 %2, ptr %6, align 8, !tbaa !28
  %7 = load ptr, ptr %4, align 8
  %8 = getelementptr inbounds nuw %"class.fmt::v11::basic_string_view", ptr %7, i32 0, i32 0
  %9 = load ptr, ptr %5, align 8, !tbaa !8
  store ptr %9, ptr %8, align 8, !tbaa !95
  %10 = getelementptr inbounds nuw %"class.fmt::v11::basic_string_view", ptr %7, i32 0, i32 1
  %11 = load i64, ptr %6, align 8, !tbaa !28
  store i64 %11, ptr %10, align 8, !tbaa !96
  ret void
}

; Function Attrs: mustprogress nounwind uwtable
define linkonce_odr dso_local noundef i64 @_ZNK3fmt3v1117basic_string_viewIcE4sizeEv(ptr noundef nonnull align 8 dereferenceable(16) %0) #0 comdat align 2 {
  %2 = alloca ptr, align 8
  store ptr %0, ptr %2, align 8, !tbaa !13
  %3 = load ptr, ptr %2, align 8
  %4 = getelementptr inbounds nuw %"class.fmt::v11::basic_string_view", ptr %3, i32 0, i32 1
  %5 = load i64, ptr %4, align 8, !tbaa !96
  ret i64 %5
}

; Function Attrs: mustprogress nounwind uwtable
define linkonce_odr dso_local noundef ptr @_ZN3fmt3v116detail6bufferIcE4dataEv(ptr noundef nonnull align 8 dereferenceable(32) %0) #0 comdat align 2 {
  %2 = alloca ptr, align 8
  store ptr %0, ptr %2, align 8, !tbaa !87
  %3 = load ptr, ptr %2, align 8
  %4 = getelementptr inbounds nuw %"class.fmt::v11::detail::buffer", ptr %3, i32 0, i32 0
  %5 = load ptr, ptr %4, align 8, !tbaa !92
  ret ptr %5
}

; Function Attrs: mustprogress uwtable
define linkonce_odr dso_local void @_ZN3fmt3v116detail6bufferIcE11try_reserveEm(ptr noundef nonnull align 8 dereferenceable(32) %0, i64 noundef %1) #5 comdat align 2 {
  %3 = alloca ptr, align 8
  %4 = alloca i64, align 8
  store ptr %0, ptr %3, align 8, !tbaa !87
  store i64 %1, ptr %4, align 8, !tbaa !28
  %5 = load ptr, ptr %3, align 8
  %6 = load i64, ptr %4, align 8, !tbaa !28
  %7 = getelementptr inbounds nuw %"class.fmt::v11::detail::buffer", ptr %5, i32 0, i32 2
  %8 = load i64, ptr %7, align 8, !tbaa !91
  %9 = icmp ugt i64 %6, %8
  br i1 %9, label %10, label %14

10:                                               ; preds = %2
  %11 = getelementptr inbounds nuw %"class.fmt::v11::detail::buffer", ptr %5, i32 0, i32 3
  %12 = load ptr, ptr %11, align 8, !tbaa !655
  %13 = load i64, ptr %4, align 8, !tbaa !28
  call void %12(ptr noundef nonnull align 8 dereferenceable(32) %5, i64 noundef %13)
  br label %14

14:                                               ; preds = %10, %2
  ret void
}

; Function Attrs: mustprogress uwtable
define linkonce_odr dso_local noundef i64 @_ZN3fmt3v116detail11to_unsignedIlEENSt13make_unsignedIT_E4typeES4_(i64 noundef %0) #5 comdat {
  %2 = alloca i64, align 8
  %3 = alloca i8, align 1
  store i64 %0, ptr %2, align 8, !tbaa !28
  call void @llvm.lifetime.start.p0(i64 1, ptr %3) #13
  %4 = load i64, ptr %2, align 8, !tbaa !28
  %5 = icmp sge i64 %4, 0
  %6 = zext i1 %5 to i8
  store i8 %6, ptr %3, align 1, !tbaa !36
  call void @_ZN3fmt3v116detail13ignore_unusedIJbA15_cEEEvDpRKT_(ptr noundef nonnull align 1 dereferenceable(1) %3, ptr noundef nonnull align 1 dereferenceable(15) @.str.49)
  call void @llvm.lifetime.end.p0(i64 1, ptr %3) #13
  %7 = load i64, ptr %2, align 8, !tbaa !28
  ret i64 %7
}

; Function Attrs: mustprogress nounwind uwtable
define dso_local void @_ZN6spdlog7details14log_msg_buffer19update_string_viewsEv(ptr noundef nonnull align 8 dereferenceable(384) %0) #0 align 2 {
  %2 = alloca ptr, align 8
  %3 = alloca %"class.fmt::v11::basic_string_view", align 8
  %4 = alloca %"class.fmt::v11::basic_string_view", align 8
  store ptr %0, ptr %2, align 8, !tbaa !60
  %5 = load ptr, ptr %2, align 8
  call void @llvm.lifetime.start.p0(i64 16, ptr %3) #13
  %6 = getelementptr inbounds nuw %"class.spdlog::details::log_msg_buffer", ptr %5, i32 0, i32 1
  %7 = call noundef ptr @_ZN3fmt3v116detail6bufferIcE4dataEv(ptr noundef nonnull align 8 dereferenceable(32) %6) #13
  %8 = getelementptr inbounds nuw %"struct.spdlog::details::log_msg", ptr %5, i32 0, i32 0
  %9 = call noundef i64 @_ZNK3fmt3v1117basic_string_viewIcE4sizeEv(ptr noundef nonnull align 8 dereferenceable(16) %8) #13
  call void @_ZN3fmt3v1117basic_string_viewIcEC2EPKcm(ptr noundef nonnull align 8 dereferenceable(16) %3, ptr noundef %7, i64 noundef %9) #13
  %10 = getelementptr inbounds nuw %"struct.spdlog::details::log_msg", ptr %5, i32 0, i32 0
  call void @llvm.memcpy.p0.p0.i64(ptr align 8 %10, ptr align 8 %3, i64 16, i1 false), !tbaa.struct !68
  call void @llvm.lifetime.end.p0(i64 16, ptr %3) #13
  call void @llvm.lifetime.start.p0(i64 16, ptr %4) #13
  %11 = getelementptr inbounds nuw %"class.spdlog::details::log_msg_buffer", ptr %5, i32 0, i32 1
  %12 = call noundef ptr @_ZN3fmt3v116detail6bufferIcE4dataEv(ptr noundef nonnull align 8 dereferenceable(32) %11) #13
  %13 = getelementptr inbounds nuw %"struct.spdlog::details::log_msg", ptr %5, i32 0, i32 0
  %14 = call noundef i64 @_ZNK3fmt3v1117basic_string_viewIcE4sizeEv(ptr noundef nonnull align 8 dereferenceable(16) %13) #13
  %15 = getelementptr inbounds nuw i8, ptr %12, i64 %14
  %16 = getelementptr inbounds nuw %"struct.spdlog::details::log_msg", ptr %5, i32 0, i32 7
  %17 = call noundef i64 @_ZNK3fmt3v1117basic_string_viewIcE4sizeEv(ptr noundef nonnull align 8 dereferenceable(16) %16) #13
  call void @_ZN3fmt3v1117basic_string_viewIcEC2EPKcm(ptr noundef nonnull align 8 dereferenceable(16) %4, ptr noundef %15, i64 noundef %17) #13
  %18 = getelementptr inbounds nuw %"struct.spdlog::details::log_msg", ptr %5, i32 0, i32 7
  call void @llvm.memcpy.p0.p0.i64(ptr align 8 %18, ptr align 8 %4, i64 16, i1 false), !tbaa.struct !68
  call void @llvm.lifetime.end.p0(i64 16, ptr %4) #13
  ret void
}

; Function Attrs: mustprogress uwtable
define linkonce_odr dso_local void @_ZN3fmt3v116detail6bufferIcE6appendIcEEvPKT_S7_(ptr noundef nonnull align 8 dereferenceable(32) %0, ptr noundef %1, ptr noundef %2) #5 comdat align 2 {
  %4 = alloca ptr, align 8
  %5 = alloca ptr, align 8
  %6 = alloca ptr, align 8
  %7 = alloca i64, align 8
  %8 = alloca i64, align 8
  %9 = alloca ptr, align 8
  %10 = alloca i64, align 8
  store ptr %0, ptr %4, align 8, !tbaa !87
  store ptr %1, ptr %5, align 8, !tbaa !8
  store ptr %2, ptr %6, align 8, !tbaa !8
  %11 = load ptr, ptr %4, align 8
  br label %12

12:                                               ; preds = %59, %3
  %13 = load ptr, ptr %5, align 8, !tbaa !8
  %14 = load ptr, ptr %6, align 8, !tbaa !8
  %15 = icmp ne ptr %13, %14
  br i1 %15, label %16, label %67

16:                                               ; preds = %12
  call void @llvm.lifetime.start.p0(i64 8, ptr %7) #13
  %17 = load ptr, ptr %6, align 8, !tbaa !8
  %18 = load ptr, ptr %5, align 8, !tbaa !8
  %19 = ptrtoint ptr %17 to i64
  %20 = ptrtoint ptr %18 to i64
  %21 = sub i64 %19, %20
  %22 = call noundef i64 @_ZN3fmt3v116detail11to_unsignedIlEENSt13make_unsignedIT_E4typeES4_(i64 noundef %21)
  store i64 %22, ptr %7, align 8, !tbaa !28
  %23 = getelementptr inbounds nuw %"class.fmt::v11::detail::buffer", ptr %11, i32 0, i32 1
  %24 = load i64, ptr %23, align 8, !tbaa !89
  %25 = load i64, ptr %7, align 8, !tbaa !28
  %26 = add i64 %24, %25
  call void @_ZN3fmt3v116detail6bufferIcE11try_reserveEm(ptr noundef nonnull align 8 dereferenceable(32) %11, i64 noundef %26)
  call void @llvm.lifetime.start.p0(i64 8, ptr %8) #13
  %27 = getelementptr inbounds nuw %"class.fmt::v11::detail::buffer", ptr %11, i32 0, i32 2
  %28 = load i64, ptr %27, align 8, !tbaa !91
  %29 = getelementptr inbounds nuw %"class.fmt::v11::detail::buffer", ptr %11, i32 0, i32 1
  %30 = load i64, ptr %29, align 8, !tbaa !89
  %31 = sub i64 %28, %30
  store i64 %31, ptr %8, align 8, !tbaa !28
  %32 = load i64, ptr %8, align 8, !tbaa !28
  %33 = load i64, ptr %7, align 8, !tbaa !28
  %34 = icmp ult i64 %32, %33
  br i1 %34, label %35, label %37

35:                                               ; preds = %16
  %36 = load i64, ptr %8, align 8, !tbaa !28
  store i64 %36, ptr %7, align 8, !tbaa !28
  br label %37

37:                                               ; preds = %35, %16
  call void @llvm.lifetime.start.p0(i64 8, ptr %9) #13
  %38 = getelementptr inbounds nuw %"class.fmt::v11::detail::buffer", ptr %11, i32 0, i32 0
  %39 = load ptr, ptr %38, align 8, !tbaa !92
  %40 = getelementptr inbounds nuw %"class.fmt::v11::detail::buffer", ptr %11, i32 0, i32 1
  %41 = load i64, ptr %40, align 8, !tbaa !89
  %42 = getelementptr inbounds nuw i8, ptr %39, i64 %41
  store ptr %42, ptr %9, align 8, !tbaa !8
  call void @llvm.lifetime.start.p0(i64 8, ptr %10) #13
  store i64 0, ptr %10, align 8, !tbaa !28
  br label %43

43:                                               ; preds = %56, %37
  %44 = load i64, ptr %10, align 8, !tbaa !28
  %45 = load i64, ptr %7, align 8, !tbaa !28
  %46 = icmp ult i64 %44, %45
  br i1 %46, label %48, label %47

47:                                               ; preds = %43
  call void @llvm.lifetime.end.p0(i64 8, ptr %10) #13
  br label %59

48:                                               ; preds = %43
  %49 = load ptr, ptr %5, align 8, !tbaa !8
  %50 = load i64, ptr %10, align 8, !tbaa !28
  %51 = getelementptr inbounds nuw i8, ptr %49, i64 %50
  %52 = load i8, ptr %51, align 1, !tbaa !21
  %53 = load ptr, ptr %9, align 8, !tbaa !8
  %54 = load i64, ptr %10, align 8, !tbaa !28
  %55 = getelementptr inbounds nuw i8, ptr %53, i64 %54
  store i8 %52, ptr %55, align 1, !tbaa !21
  br label %56

56:                                               ; preds = %48
  %57 = load i64, ptr %10, align 8, !tbaa !28
  %58 = add i64 %57, 1
  store i64 %58, ptr %10, align 8, !tbaa !28
  br label %43, !llvm.loop !93

59:                                               ; preds = %47
  %60 = load i64, ptr %7, align 8, !tbaa !28
  %61 = getelementptr inbounds nuw %"class.fmt::v11::detail::buffer", ptr %11, i32 0, i32 1
  %62 = load i64, ptr %61, align 8, !tbaa !89
  %63 = add i64 %62, %60
  store i64 %63, ptr %61, align 8, !tbaa !89
  %64 = load i64, ptr %7, align 8, !tbaa !28
  %65 = load ptr, ptr %5, align 8, !tbaa !8
  %66 = getelementptr inbounds nuw i8, ptr %65, i64 %64
  store ptr %66, ptr %5, align 8, !tbaa !8
  call void @llvm.lifetime.end.p0(i64 8, ptr %9) #13
  call void @llvm.lifetime.end.p0(i64 8, ptr %8) #13
  call void @llvm.lifetime.end.p0(i64 8, ptr %7) #13
  br label %12, !llvm.loop !94

67:                                               ; preds = %12
  ret void
}

; Function Attrs: mustprogress nounwind uwtable
define linkonce_odr dso_local noundef i64 @_ZNK3fmt3v116detail6bufferIcE4sizeEv(ptr noundef nonnull align 8 dereferenceable(32) %0) #0 comdat align 2 {
  %2 = alloca ptr, align 8
  store ptr %0, ptr %2, align 8, !tbaa !87
  %3 = load ptr, ptr %2, align 8
  %4 = getelementptr inbounds nuw %"class.fmt::v11::detail::buffer", ptr %3, i32 0, i32 1
  %5 = load i64, ptr %4, align 8, !tbaa !89
  ret i64 %5
}

; Function Attrs: mustprogress nounwind uwtable
define linkonce_odr dso_local noundef ptr @_ZNK3fmt3v116detail6bufferIcE4dataEv(ptr noundef nonnull align 8 dereferenceable(32) %0) #0 comdat align 2 {
  %2 = alloca ptr, align 8
  store ptr %0, ptr %2, align 8, !tbaa !87
  %3 = load ptr, ptr %2, align 8
  %4 = getelementptr inbounds nuw %"class.fmt::v11::detail::buffer", ptr %3, i32 0, i32 0
  %5 = load ptr, ptr %4, align 8, !tbaa !92
  ret ptr %5
}

; Function Attrs: mustprogress nounwind uwtable
define linkonce_odr dso_local void @_ZN3fmt3v116detail6bufferIcE5clearEv(ptr noundef nonnull align 8 dereferenceable(32) %0) #0 comdat align 2 {
  %2 = alloca ptr, align 8
  store ptr %0, ptr %2, align 8, !tbaa !87
  %3 = load ptr, ptr %2, align 8
  %4 = getelementptr inbounds nuw %"class.fmt::v11::detail::buffer", ptr %3, i32 0, i32 1
  store i64 0, ptr %4, align 8, !tbaa !89
  ret void
}

; Function Attrs: mustprogress uwtable
define dso_local noundef nonnull align 8 dereferenceable(384) ptr @_ZN6spdlog7details14log_msg_bufferaSERKS1_(ptr noundef nonnull align 8 dereferenceable(384) %0, ptr noundef nonnull align 8 dereferenceable(384) %1) #5 align 2 {
  %3 = alloca ptr, align 8
  %4 = alloca ptr, align 8
  store ptr %0, ptr %3, align 8, !tbaa !60
  store ptr %1, ptr %4, align 8, !tbaa !60
  %5 = load ptr, ptr %3, align 8
  %6 = load ptr, ptr %4, align 8, !tbaa !60
  call void @llvm.memcpy.p0.p0.i64(ptr align 8 %5, ptr align 8 %6, i64 96, i1 false), !tbaa.struct !86
  %7 = getelementptr inbounds nuw %"class.spdlog::details::log_msg_buffer", ptr %5, i32 0, i32 1
  call void @_ZN3fmt3v116detail6bufferIcE5clearEv(ptr noundef nonnull align 8 dereferenceable(32) %7)
  %8 = getelementptr inbounds nuw %"class.spdlog::details::log_msg_buffer", ptr %5, i32 0, i32 1
  %9 = load ptr, ptr %4, align 8, !tbaa !60
  %10 = getelementptr inbounds nuw %"class.spdlog::details::log_msg_buffer", ptr %9, i32 0, i32 1
  %11 = call noundef ptr @_ZNK3fmt3v116detail6bufferIcE4dataEv(ptr noundef nonnull align 8 dereferenceable(32) %10) #13
  %12 = load ptr, ptr %4, align 8, !tbaa !60
  %13 = getelementptr inbounds nuw %"class.spdlog::details::log_msg_buffer", ptr %12, i32 0, i32 1
  %14 = call noundef ptr @_ZNK3fmt3v116detail6bufferIcE4dataEv(ptr noundef nonnull align 8 dereferenceable(32) %13) #13
  %15 = load ptr, ptr %4, align 8, !tbaa !60
  %16 = getelementptr inbounds nuw %"class.spdlog::details::log_msg_buffer", ptr %15, i32 0, i32 1
  %17 = call noundef i64 @_ZNK3fmt3v116detail6bufferIcE4sizeEv(ptr noundef nonnull align 8 dereferenceable(32) %16) #13
  %18 = getelementptr inbounds nuw i8, ptr %14, i64 %17
  call void @_ZN3fmt3v116detail6bufferIcE6appendIcEEvPKT_S7_(ptr noundef nonnull align 8 dereferenceable(32) %8, ptr noundef %11, ptr noundef %18)
  call void @_ZN6spdlog7details14log_msg_buffer19update_string_viewsEv(ptr noundef nonnull align 8 dereferenceable(384) %5)
  ret ptr %5
}