; Function Attrs: mustprogress uwtable
define dso_local noundef nonnull align 8 dereferenceable(384) ptr @_ZN6spdlog7details14log_msg_bufferaSERKS1_(ptr noundef nonnull returned align 8 dereferenceable(384) initializes((0, 96), (104, 112)) %0, ptr noundef nonnull readonly align 8 captures(none) dereferenceable(384) %1) local_unnamed_addr #6 align 2 {
  tail call void @llvm.memcpy.p0.p0.i64(ptr noundef nonnull align 8 dereferenceable(96) %0, ptr noundef nonnull align 8 dereferenceable(96) %1, i64 96, i1 false), !tbaa.struct !52
  %3 = getelementptr inbounds nuw i8, ptr %0, i64 96
  %4 = getelementptr inbounds nuw i8, ptr %0, i64 104
  store i64 0, ptr %4, align 8, !tbaa !25
  %5 = getelementptr inbounds nuw i8, ptr %1, i64 96
  %6 = load ptr, ptr %5, align 8, !tbaa !20
  %7 = getelementptr inbounds nuw i8, ptr %1, i64 104
  %8 = load i64, ptr %7, align 8, !tbaa !25
  %9 = getelementptr inbounds nuw i8, ptr %6, i64 %8
  %.not24.i = icmp samesign eq i64 %8, 0
  br i1 %.not24.i, label %_ZN3fmt3v116detail6bufferIcE6appendIcEEvPKT_S7_.exit, label %.lr.ph27.i

.lr.ph27.i:                                       ; preds = %2
  %10 = ptrtoint ptr %9 to i64
  %11 = getelementptr inbounds nuw i8, ptr %0, i64 112
  %12 = getelementptr inbounds nuw i8, ptr %0, i64 120
  br label %13

13:                                               ; preds = %._crit_edge.i, %.lr.ph27.i
  %14 = phi i64 [ 0, %.lr.ph27.i ], [ %28, %._crit_edge.i ]
  %.01825.i = phi ptr [ %6, %.lr.ph27.i ], [ %29, %._crit_edge.i ]
  %15 = ptrtoint ptr %.01825.i to i64
  %16 = sub i64 %10, %15
  %17 = add i64 %16, %14
  %18 = load i64, ptr %11, align 8, !tbaa !21
  %19 = icmp ugt i64 %17, %18
  br i1 %19, label %20, label %_ZN3fmt3v116detail6bufferIcE11try_reserveEm.exit.i

20:                                               ; preds = %13
  %21 = load ptr, ptr %12, align 8, !tbaa !18
  tail call void %21(ptr noundef nonnull align 8 dereferenceable(32) %3, i64 noundef %17)
  %.pre30.i = load i64, ptr %11, align 8, !tbaa !21
  %.pre31.i = load i64, ptr %4, align 8, !tbaa !25
  br label %_ZN3fmt3v116detail6bufferIcE11try_reserveEm.exit.i

_ZN3fmt3v116detail6bufferIcE11try_reserveEm.exit.i: ; preds = %20, %13
  %22 = phi i64 [ %14, %13 ], [ %.pre31.i, %20 ]
  %23 = phi i64 [ %18, %13 ], [ %.pre30.i, %20 ]
  %24 = sub i64 %23, %22
  %spec.select.i = tail call i64 @llvm.umin.i64(i64 %24, i64 %16)
  %25 = load ptr, ptr %3, align 8, !tbaa !20
  %26 = getelementptr inbounds nuw i8, ptr %25, i64 %22
  %.not29.i = icmp eq i64 %spec.select.i, 0
  br i1 %.not29.i, label %._crit_edge.i, label %.lr.ph.i

._crit_edge.loopexit.i:                           ; preds = %.lr.ph.i
  %.pre32.i = load i64, ptr %4, align 8, !tbaa !25
  br label %._crit_edge.i

._crit_edge.i:                                    ; preds = %._crit_edge.loopexit.i, %_ZN3fmt3v116detail6bufferIcE11try_reserveEm.exit.i
  %27 = phi i64 [ %.pre32.i, %._crit_edge.loopexit.i ], [ %22, %_ZN3fmt3v116detail6bufferIcE11try_reserveEm.exit.i ]
  %28 = add i64 %27, %spec.select.i
  store i64 %28, ptr %4, align 8, !tbaa !25
  %29 = getelementptr inbounds nuw i8, ptr %.01825.i, i64 %spec.select.i
  %.not.i = icmp eq ptr %29, %9
  br i1 %.not.i, label %_ZN3fmt3v116detail6bufferIcE6appendIcEEvPKT_S7_.exit, label %13, !llvm.loop !67

.lr.ph.i:                                         ; preds = %_ZN3fmt3v116detail6bufferIcE11try_reserveEm.exit.i, %.lr.ph.i
  %.023.i = phi i64 [ %33, %.lr.ph.i ], [ 0, %_ZN3fmt3v116detail6bufferIcE11try_reserveEm.exit.i ]
  %30 = getelementptr inbounds nuw i8, ptr %.01825.i, i64 %.023.i
  %31 = load i8, ptr %30, align 1, !tbaa !17
  %32 = getelementptr inbounds nuw i8, ptr %26, i64 %.023.i
  store i8 %31, ptr %32, align 1, !tbaa !17
  %33 = add nuw i64 %.023.i, 1
  %exitcond.not.i = icmp eq i64 %33, %spec.select.i
  br i1 %exitcond.not.i, label %._crit_edge.loopexit.i, label %.lr.ph.i, !llvm.loop !68

_ZN3fmt3v116detail6bufferIcE6appendIcEEvPKT_S7_.exit: ; preds = %._crit_edge.i, %2
  %34 = load ptr, ptr %3, align 8, !tbaa !20
  %35 = getelementptr inbounds nuw i8, ptr %0, i64 8
  %36 = load i64, ptr %35, align 8, !tbaa !56
  store ptr %34, ptr %0, align 8, !tbaa !4
  %37 = getelementptr inbounds nuw i8, ptr %34, i64 %36
  %38 = getelementptr inbounds nuw i8, ptr %0, i64 80
  store ptr %37, ptr %38, align 8, !tbaa !4
  ret ptr %0
}